target datalayout = "e-m:e-p270:32:32-p271:32:32-p272:64:64-i64:64-i128:128-f80:128-n8:16:32:64-S128"
target triple = "x86_64-pc-linux-gnu"

@.str.7833 = private unnamed_addr constant [10 x i8] c"%ucm (%u)\00", align 1
@.str.7834 = private unnamed_addr constant [11 x i8] c"Spare (%u)\00", align 1
@.str.7835 = private unnamed_addr constant [39 x i8] c"No Accuracy Prediction Available (255)\00", align 1

; Function Attrs: null_pointer_is_valid sspstrong uwtable
define internal void @lpp_sisa_fmt(ptr noundef %0, i32 noundef %1) #0 {
  %3 = alloca ptr, align 8
  %4 = alloca i32, align 4
  store ptr %0, ptr %3, align 8
  store i32 %1, ptr %4, align 4
  %5 = load i32, ptr %4, align 4
  %6 = icmp ult i32 %5, 50
  br i1 %6, label %7, label %14

7:                                                ; preds = %2
  %8 = load ptr, ptr %3, align 8
  %9 = load ptr, ptr %3, align 8
  %10 = call i64 @llvm.objectsize.i64.p0(ptr %9, i1 false, i1 true, i1 true)
  %11 = load i32, ptr %4, align 4
  %12 = load i32, ptr %4, align 4
  %13 = call i32 (ptr, i64, i32, i64, ptr, ...) @__snprintf_chk(ptr noundef %8, i64 noundef 240, i32 noundef 2, i64 noundef %10, ptr noundef @.str.7833, i32 noundef %11, i32 noundef %12)
  br label %71

14:                                               ; preds = %2
  %15 = load i32, ptr %4, align 4
  %16 = icmp ult i32 %15, 75
  br i1 %16, label %17, label %27

17:                                               ; preds = %14
  %18 = load ptr, ptr %3, align 8
  %19 = load ptr, ptr %3, align 8
  %20 = call i64 @llvm.objectsize.i64.p0(ptr %19, i1 false, i1 true, i1 true)
  %21 = load i32, ptr %4, align 4
  %22 = sub i32 %21, 50
  %23 = mul i32 %22, 2
  %24 = add i32 50, %23
  %25 = load i32, ptr %4, align 4
  %26 = call i32 (ptr, i64, i32, i64, ptr, ...) @__snprintf_chk(ptr noundef %18, i64 noundef 240, i32 noundef 2, i64 noundef %20, ptr noundef @.str.7833, i32 noundef %24, i32 noundef %25)
  br label %70

27:                                               ; preds = %14
  %28 = load i32, ptr %4, align 4
  %29 = icmp ult i32 %28, 100
  br i1 %29, label %30, label %40

30:                                               ; preds = %27
  %31 = load ptr, ptr %3, align 8
  %32 = load ptr, ptr %3, align 8
  %33 = call i64 @llvm.objectsize.i64.p0(ptr %32, i1 false, i1 true, i1 true)
  %34 = load i32, ptr %4, align 4
  %35 = sub i32 %34, 75
  %36 = mul i32 %35, 4
  %37 = add i32 100, %36
  %38 = load i32, ptr %4, align 4
  %39 = call i32 (ptr, i64, i32, i64, ptr, ...) @__snprintf_chk(ptr noundef %31, i64 noundef 240, i32 noundef 2, i64 noundef %33, ptr noundef @.str.7833, i32 noundef %37, i32 noundef %38)
  br label %69

40:                                               ; preds = %27
  %41 = load i32, ptr %4, align 4
  %42 = icmp ult i32 %41, 126
  br i1 %42, label %43, label %53

43:                                               ; preds = %40
  %44 = load ptr, ptr %3, align 8
  %45 = load ptr, ptr %3, align 8
  %46 = call i64 @llvm.objectsize.i64.p0(ptr %45, i1 false, i1 true, i1 true)
  %47 = load i32, ptr %4, align 4
  %48 = sub i32 %47, 100
  %49 = mul i32 %48, 16
  %50 = add i32 200, %49
  %51 = load i32, ptr %4, align 4
  %52 = call i32 (ptr, i64, i32, i64, ptr, ...) @__snprintf_chk(ptr noundef %44, i64 noundef 240, i32 noundef 2, i64 noundef %46, ptr noundef @.str.7833, i32 noundef %50, i32 noundef %51)
  br label %68

53:                                               ; preds = %40
  %54 = load i32, ptr %4, align 4
  %55 = icmp ult i32 %54, 255
  br i1 %55, label %56, label %62

56:                                               ; preds = %53
  %57 = load ptr, ptr %3, align 8
  %58 = load ptr, ptr %3, align 8
  %59 = call i64 @llvm.objectsize.i64.p0(ptr %58, i1 false, i1 true, i1 true)
  %60 = load i32, ptr %4, align 4
  %61 = call i32 (ptr, i64, i32, i64, ptr, ...) @__snprintf_chk(ptr noundef %57, i64 noundef 240, i32 noundef 2, i64 noundef %59, ptr noundef @.str.7834, i32 noundef %60)
  br label %67

62:                                               ; preds = %53
  %63 = load ptr, ptr %3, align 8
  %64 = load ptr, ptr %3, align 8
  %65 = call i64 @llvm.objectsize.i64.p0(ptr %64, i1 false, i1 true, i1 true)
  %66 = call i32 (ptr, i64, i32, i64, ptr, ...) @__snprintf_chk(ptr noundef %63, i64 noundef 240, i32 noundef 2, i64 noundef %65, ptr noundef @.str.7835)
  br label %67

67:                                               ; preds = %62, %56
  br label %68

68:                                               ; preds = %67, %43
  br label %69

69:                                               ; preds = %68, %30
  br label %70

70:                                               ; preds = %69, %17
  br label %71

71:                                               ; preds = %70, %7
  ret void
}