; Function Attrs: nofree null_pointer_is_valid sspstrong uwtable
define internal void @lpp_sisa_fmt(ptr noundef %0, i32 noundef %1) #3 {
  %3 = icmp ult i32 %1, 50
  br i1 %3, label %4, label %6

4:                                                ; preds = %2
  %5 = tail call i32 (ptr, i64, i32, i64, ptr, ...) @__snprintf_chk(ptr noundef %0, i64 noundef 240, i32 noundef 2, i64 noundef -1, ptr noundef nonnull @.str.7833, i32 noundef %1, i32 noundef %1)
  br label %30

6:                                                ; preds = %2
  %7 = icmp ult i32 %1, 75
  br i1 %7, label %8, label %12

8:                                                ; preds = %6
  %9 = shl nuw nsw i32 %1, 1
  %10 = add nsw i32 %9, -50
  %11 = tail call i32 (ptr, i64, i32, i64, ptr, ...) @__snprintf_chk(ptr noundef %0, i64 noundef 240, i32 noundef 2, i64 noundef -1, ptr noundef nonnull @.str.7833, i32 noundef %10, i32 noundef %1)
  br label %30

12:                                               ; preds = %6
  %13 = icmp ult i32 %1, 100
  br i1 %13, label %14, label %18

14:                                               ; preds = %12
  %15 = shl nuw nsw i32 %1, 2
  %16 = add nsw i32 %15, -200
  %17 = tail call i32 (ptr, i64, i32, i64, ptr, ...) @__snprintf_chk(ptr noundef %0, i64 noundef 240, i32 noundef 2, i64 noundef -1, ptr noundef nonnull @.str.7833, i32 noundef %16, i32 noundef %1)
  br label %30

18:                                               ; preds = %12
  %19 = icmp ult i32 %1, 126
  br i1 %19, label %20, label %24

20:                                               ; preds = %18
  %21 = shl nuw nsw i32 %1, 4
  %22 = add nsw i32 %21, -1400
  %23 = tail call i32 (ptr, i64, i32, i64, ptr, ...) @__snprintf_chk(ptr noundef %0, i64 noundef 240, i32 noundef 2, i64 noundef -1, ptr noundef nonnull @.str.7833, i32 noundef %22, i32 noundef %1)
  br label %30

24:                                               ; preds = %18
  %25 = icmp ult i32 %1, 255
  br i1 %25, label %26, label %28

26:                                               ; preds = %24
  %27 = tail call i32 (ptr, i64, i32, i64, ptr, ...) @__snprintf_chk(ptr noundef %0, i64 noundef 240, i32 noundef 2, i64 noundef -1, ptr noundef nonnull @.str.7834, i32 noundef %1)
  br label %30

28:                                               ; preds = %24
  %29 = tail call i32 (ptr, i64, i32, i64, ptr, ...) @__snprintf_chk(ptr noundef %0, i64 noundef 240, i32 noundef 2, i64 noundef -1, ptr noundef nonnull @.str.7835)
  br label %30

30:                                               ; preds = %8, %20, %28, %26, %14, %4
  ret void
}